; Function Attrs: mustprogress uwtable
define internal void @_ZN2cvL8reduceC_IhiNS_5OpAddIiiiEENS_5OpNopIiiiEEEEvRKNS_3MatERS5_(ptr noundef nonnull align 8 dereferenceable(96) %0, ptr noundef nonnull align 8 dereferenceable(96) %1) unnamed_addr #1 personality ptr @__gxx_personality_v0 {
  %3 = alloca %"struct.cv::OpAdd", align 1
  %4 = alloca %"struct.cv::OpNop", align 1
  %5 = alloca %"class.cv::ReduceC_Invoker", align 8
  %6 = alloca %"class.cv::Range", align 4
  call void @llvm.lifetime.start.p0(i64 1, ptr nonnull %3) #17
  call void @llvm.lifetime.start.p0(i64 1, ptr nonnull %4) #17
  call void @llvm.lifetime.start.p0(i64 40, ptr nonnull %5) #17
  store ptr getelementptr inbounds nuw inrange(-16, 24) (i8, ptr @_ZTVN2cv15ReduceC_InvokerIhiiNS_5OpAddIiiiEENS_5OpNopIiiiEEEE, i64 16), ptr %5, align 8, !tbaa !109
  %7 = getelementptr inbounds nuw i8, ptr %5, i64 8
  store ptr %0, ptr %7, align 8, !tbaa !57
  %8 = getelementptr inbounds nuw i8, ptr %5, i64 16
  store ptr %1, ptr %8, align 8, !tbaa !57
  %9 = getelementptr inbounds nuw i8, ptr %5, i64 24
  store ptr %3, ptr %9, align 8, !tbaa !111
  %10 = getelementptr inbounds nuw i8, ptr %5, i64 32
  store ptr %4, ptr %10, align 8, !tbaa !113
  call void @llvm.lifetime.start.p0(i64 8, ptr nonnull %6) #17
  %11 = getelementptr inbounds nuw i8, ptr %0, i64 64
  %12 = load ptr, ptr %11, align 8, !tbaa !102
  %13 = load i32, ptr %12, align 4, !tbaa !3
  store i32 0, ptr %6, align 4, !tbaa !118
  %14 = getelementptr inbounds nuw i8, ptr %6, i64 4
  store i32 %13, ptr %14, align 4, !tbaa !120
  invoke void @_ZN2cv13parallel_for_ERKNS_5RangeERKNS_16ParallelLoopBodyEd(ptr noundef nonnull align 4 dereferenceable(8) %6, ptr noundef nonnull align 8 dereferenceable(8) %5, double noundef -1.000000e+00)
          to label %15 unwind label %16

15:                                               ; preds = %2
  call void @llvm.lifetime.end.p0(i64 8, ptr nonnull %6) #17
  call void @_ZN2cv16ParallelLoopBodyD2Ev(ptr noundef nonnull align 8 dereferenceable(40) %5) #17
  call void @llvm.lifetime.end.p0(i64 40, ptr nonnull %5) #17
  call void @llvm.lifetime.end.p0(i64 1, ptr nonnull %4) #17
  call void @llvm.lifetime.end.p0(i64 1, ptr nonnull %3) #17
  ret void

16:                                               ; preds = %2
  %17 = landingpad { ptr, i32 }
          cleanup
  call void @llvm.lifetime.end.p0(i64 8, ptr nonnull %6) #17
  call void @_ZN2cv16ParallelLoopBodyD2Ev(ptr noundef nonnull align 8 dereferenceable(40) %5) #17
  call void @llvm.lifetime.end.p0(i64 40, ptr nonnull %5) #17
  call void @llvm.lifetime.end.p0(i64 1, ptr nonnull %4) #17
  call void @llvm.lifetime.end.p0(i64 1, ptr nonnull %3) #17
  resume { ptr, i32 } %17
}